; ModuleID = '288.c'
source_filename = "288.c"
target datalayout = "e-m:e-p270:32:32-p271:32:32-p272:64:64-i64:64-f80:128-n8:16:32:64-S128"
target triple = "x86_64-pc-linux-gnu"

%struct.tushu = type { i32, [26 x i8] }

@.str = private unnamed_addr constant [3 x i8] c"%d\00", align 1
@.str.1 = private unnamed_addr constant [6 x i8] c"%d %s\00", align 1
@.str.2 = private unnamed_addr constant [7 x i8] c"%c\0A%d\0A\00", align 1
@.str.3 = private unnamed_addr constant [4 x i8] c"%d\0A\00", align 1

; Function Attrs: noinline nounwind uwtable
define dso_local i32 @main() #0 {
  %1 = alloca i32, align 4
  %2 = alloca i32, align 4
  %3 = alloca i32, align 4
  %4 = alloca i32, align 4
  %5 = alloca i32, align 4
  %6 = alloca [26 x i32], align 16
  %7 = alloca %struct.tushu*, align 8
  %8 = alloca i32*, align 8
  %9 = alloca i32, align 4
  store i32 0, i32* %1, align 4
  store i32 0, i32* %5, align 4
  %10 = bitcast [26 x i32]* %6 to i8*
  call void @llvm.memset.p0i8.i64(i8* align 16 %10, i8 0, i64 104, i1 false)
  %11 = call i32 (i8*, ...) @__isoc99_scanf(i8* getelementptr inbounds ([3 x i8], [3 x i8]* @.str, i64 0, i64 0), i32* %4)
  %12 = load i32, i32* %4, align 4
  %13 = sext i32 %12 to i64
  %14 = mul i64 32, %13
  %15 = call noalias i8* @malloc(i64 %14) #5
  %16 = bitcast i8* %15 to %struct.tushu*
  store %struct.tushu* %16, %struct.tushu** %7, align 8
  %17 = load i32, i32* %4, align 4
  %18 = sext i32 %17 to i64
  %19 = mul i64 4, %18
  %20 = call noalias i8* @malloc(i64 %19) #5
  %21 = bitcast i8* %20 to i32*
  store i32* %21, i32** %8, align 8
  store i32 0, i32* %2, align 4
  br label %22

22:                                               ; preds = %39, %0
  %23 = load i32, i32* %2, align 4
  %24 = load i32, i32* %4, align 4
  %25 = icmp slt i32 %23, %24
  br i1 %25, label %26, label %42

26:                                               ; preds = %22
  %27 = load %struct.tushu*, %struct.tushu** %7, align 8
  %28 = load i32, i32* %2, align 4
  %29 = sext i32 %28 to i64
  %30 = getelementptr inbounds %struct.tushu, %struct.tushu* %27, i64 %29
  %31 = getelementptr inbounds %struct.tushu, %struct.tushu* %30, i32 0, i32 0
  %32 = load %struct.tushu*, %struct.tushu** %7, align 8
  %33 = load i32, i32* %2, align 4
  %34 = sext i32 %33 to i64
  %35 = getelementptr inbounds %struct.tushu, %struct.tushu* %32, i64 %34
  %36 = getelementptr inbounds %struct.tushu, %struct.tushu* %35, i32 0, i32 1
  %37 = getelementptr inbounds [26 x i8], [26 x i8]* %36, i64 0, i64 0
  %38 = call i32 (i8*, ...) @__isoc99_scanf(i8* getelementptr inbounds ([6 x i8], [6 x i8]* @.str.1, i64 0, i64 0), i32* %31, i8* %37)
  br label %39

39:                                               ; preds = %26
  %40 = load i32, i32* %2, align 4
  %41 = add nsw i32 %40, 1
  store i32 %41, i32* %2, align 4
  br label %22

42:                                               ; preds = %22
  store i32 0, i32* %2, align 4
  br label %43

43:                                               ; preds = %88, %42
  %44 = load i32, i32* %2, align 4
  %45 = load i32, i32* %4, align 4
  %46 = icmp slt i32 %44, %45
  br i1 %46, label %47, label %91

47:                                               ; preds = %43
  %48 = load %struct.tushu*, %struct.tushu** %7, align 8
  %49 = load i32, i32* %2, align 4
  %50 = sext i32 %49 to i64
  %51 = getelementptr inbounds %struct.tushu, %struct.tushu* %48, i64 %50
  %52 = getelementptr inbounds %struct.tushu, %struct.tushu* %51, i32 0, i32 1
  %53 = getelementptr inbounds [26 x i8], [26 x i8]* %52, i64 0, i64 0
  %54 = call i64 @strlen(i8* %53) #6
  %55 = trunc i64 %54 to i32
  %56 = load i32*, i32** %8, align 8
  %57 = load i32, i32* %2, align 4
  %58 = sext i32 %57 to i64
  %59 = getelementptr inbounds i32, i32* %56, i64 %58
  store i32 %55, i32* %59, align 4
  store i32 0, i32* %3, align 4
  br label %60

60:                                               ; preds = %84, %47
  %61 = load i32, i32* %3, align 4
  %62 = load i32*, i32** %8, align 8
  %63 = load i32, i32* %2, align 4
  %64 = sext i32 %63 to i64
  %65 = getelementptr inbounds i32, i32* %62, i64 %64
  %66 = load i32, i32* %65, align 4
  %67 = icmp slt i32 %61, %66
  br i1 %67, label %68, label %87

68:                                               ; preds = %60
  %69 = load %struct.tushu*, %struct.tushu** %7, align 8
  %70 = load i32, i32* %2, align 4
  %71 = sext i32 %70 to i64
  %72 = getelementptr inbounds %struct.tushu, %struct.tushu* %69, i64 %71
  %73 = getelementptr inbounds %struct.tushu, %struct.tushu* %72, i32 0, i32 1
  %74 = load i32, i32* %3, align 4
  %75 = sext i32 %74 to i64
  %76 = getelementptr inbounds [26 x i8], [26 x i8]* %73, i64 0, i64 %75
  %77 = load i8, i8* %76, align 1
  %78 = sext i8 %77 to i32
  %79 = sub nsw i32 %78, 65
  %80 = sext i32 %79 to i64
  %81 = getelementptr inbounds [26 x i32], [26 x i32]* %6, i64 0, i64 %80
  %82 = load i32, i32* %81, align 4
  %83 = add nsw i32 %82, 1
  store i32 %83, i32* %81, align 4
  br label %84

84:                                               ; preds = %68
  %85 = load i32, i32* %3, align 4
  %86 = add nsw i32 %85, 1
  store i32 %86, i32* %3, align 4
  br label %60

87:                                               ; preds = %60
  br label %88

88:                                               ; preds = %87
  %89 = load i32, i32* %2, align 4
  %90 = add nsw i32 %89, 1
  store i32 %90, i32* %2, align 4
  br label %43

91:                                               ; preds = %43
  store i32 0, i32* %9, align 4
  store i32 0, i32* %2, align 4
  br label %92

92:                                               ; preds = %109, %91
  %93 = load i32, i32* %2, align 4
  %94 = icmp slt i32 %93, 26
  br i1 %94, label %95, label %112

95:                                               ; preds = %92
  %96 = load i32, i32* %2, align 4
  %97 = sext i32 %96 to i64
  %98 = getelementptr inbounds [26 x i32], [26 x i32]* %6, i64 0, i64 %97
  %99 = load i32, i32* %98, align 4
  %100 = load i32, i32* %9, align 4
  %101 = icmp sgt i32 %99, %100
  br i1 %101, label %102, label %108

102:                                              ; preds = %95
  %103 = load i32, i32* %2, align 4
  %104 = sext i32 %103 to i64
  %105 = getelementptr inbounds [26 x i32], [26 x i32]* %6, i64 0, i64 %104
  %106 = load i32, i32* %105, align 4
  store i32 %106, i32* %9, align 4
  %107 = load i32, i32* %2, align 4
  store i32 %107, i32* %5, align 4
  br label %108

108:                                              ; preds = %102, %95
  br label %109

109:                                              ; preds = %108
  %110 = load i32, i32* %2, align 4
  %111 = add nsw i32 %110, 1
  store i32 %111, i32* %2, align 4
  br label %92

112:                                              ; preds = %92
  %113 = load i32, i32* %5, align 4
  %114 = add nsw i32 65, %113
  %115 = load i32, i32* %9, align 4
  %116 = call i32 (i8*, ...) @printf(i8* getelementptr inbounds ([7 x i8], [7 x i8]* @.str.2, i64 0, i64 0), i32 %114, i32 %115)
  store i32 0, i32* %2, align 4
  br label %117

117:                                              ; preds = %157, %112
  %118 = load i32, i32* %2, align 4
  %119 = load i32, i32* %4, align 4
  %120 = icmp slt i32 %118, %119
  br i1 %120, label %121, label %160

121:                                              ; preds = %117
  store i32 0, i32* %3, align 4
  br label %122

122:                                              ; preds = %153, %121
  %123 = load i32, i32* %3, align 4
  %124 = load i32*, i32** %8, align 8
  %125 = load i32, i32* %2, align 4
  %126 = sext i32 %125 to i64
  %127 = getelementptr inbounds i32, i32* %124, i64 %126
  %128 = load i32, i32* %127, align 4
  %129 = icmp slt i32 %123, %128
  br i1 %129, label %130, label %156

130:                                              ; preds = %122
  %131 = load %struct.tushu*, %struct.tushu** %7, align 8
  %132 = load i32, i32* %2, align 4
  %133 = sext i32 %132 to i64
  %134 = getelementptr inbounds %struct.tushu, %struct.tushu* %131, i64 %133
  %135 = getelementptr inbounds %struct.tushu, %struct.tushu* %134, i32 0, i32 1
  %136 = load i32, i32* %3, align 4
  %137 = sext i32 %136 to i64
  %138 = getelementptr inbounds [26 x i8], [26 x i8]* %135, i64 0, i64 %137
  %139 = load i8, i8* %138, align 1
  %140 = sext i8 %139 to i32
  %141 = load i32, i32* %5, align 4
  %142 = add nsw i32 65, %141
  %143 = icmp eq i32 %140, %142
  br i1 %143, label %144, label %152

144:                                              ; preds = %130
  %145 = load %struct.tushu*, %struct.tushu** %7, align 8
  %146 = load i32, i32* %2, align 4
  %147 = sext i32 %146 to i64
  %148 = getelementptr inbounds %struct.tushu, %struct.tushu* %145, i64 %147
  %149 = getelementptr inbounds %struct.tushu, %struct.tushu* %148, i32 0, i32 0
  %150 = load i32, i32* %149, align 4
  %151 = call i32 (i8*, ...) @printf(i8* getelementptr inbounds ([4 x i8], [4 x i8]* @.str.3, i64 0, i64 0), i32 %150)
  br label %152

152:                                              ; preds = %144, %130
  br label %153

153:                                              ; preds = %152
  %154 = load i32, i32* %3, align 4
  %155 = add nsw i32 %154, 1
  store i32 %155, i32* %3, align 4
  br label %122

156:                                              ; preds = %122
  br label %157

157:                                              ; preds = %156
  %158 = load i32, i32* %2, align 4
  %159 = add nsw i32 %158, 1
  store i32 %159, i32* %2, align 4
  br label %117

160:                                              ; preds = %117
  ret i32 0
}

; Function Attrs: argmemonly nounwind willreturn
declare void @llvm.memset.p0i8.i64(i8* nocapture writeonly, i8, i64, i1 immarg) #1

declare dso_local i32 @__isoc99_scanf(i8*, ...) #2

; Function Attrs: nounwind
declare dso_local noalias i8* @malloc(i64) #3

; Function Attrs: nounwind readonly
declare dso_local i64 @strlen(i8*) #4

declare dso_local i32 @printf(i8*, ...) #2


!llvm.module.flags = !{!0}
!llvm.ident = !{!1}

!0 = !{i32 1, !"wchar_size", i32 4}
!1 = !{!"clang version 10.0.0-4ubuntu1 "}
